Certificate:
    Data:
        Version: 3 (0x2)
        Serial Number: 1 (0x1)
    Signature Algorithm: sha256WithRSAEncryption
        Issuer: C=US, ST=Denial, L=Springfield, O=Dis, CN=ca
        Validity
            Not Before: Dec 22 19:23:25 2017 GMT
            Not After : Dec 23 19:23:25 2017 GMT
        Subject: C=US, ST=Denial, O=Dis, CN=invalid
        Subject Public Key Info:
            Public Key Algorithm: rsaEncryption
                Public-Key: (4096 bit)
                Modulus:
                    00:a2:43:b5:a6:9f:fa:3d:a8:5d:df:ae:3c:cf:79:
                    11:b6:33:43:a5:85:d7:78:76:7f:3b:eb:84:24:ac:
                    50:73:f6:0a:c7:c8:ee:b8:8a:ee:eb:6b:b0:8d:e3:
                    37:9a:d2:3b:9c:8e:e5:83:15:b6:aa:ca:be:90:55:
                    48:a4:f5:42:92:bd:01:e4:42:76:d4:40:ef:59:b7:
                    2d:88:42:03:24:d4:f7:37:33:37:0b:a6:d9:0a:48:
                    e8:59:91:ef:8e:ce:f9:42:8b:ac:01:22:13:ca:33:
                    b1:75:62:e2:5e:26:a1:f1:59:26:2b:b2:c1:fe:43:
                    fb:91:4c:c5:fd:48:01:69:3b:4d:88:65:d8:79:c5:
                    9e:da:26:dc:1c:a4:57:9e:4c:59:2a:88:18:73:d9:
                    f6:ba:ac:f7:c1:46:52:2a:48:b0:32:e0:78:e2:b7:
                    9f:ea:2a:d2:a7:29:8d:c2:55:cc:af:2a:23:4e:d7:
                    aa:e5:84:2e:f6:ef:f2:1e:fd:66:0b:2c:07:96:8f:
                    3f:cd:e1:08:aa:49:c3:d9:1e:8b:6b:2e:9a:ee:c6:
                    32:3f:21:54:d7:3d:a2:3e:65:78:13:89:6f:e6:3f:
                    cd:08:51:f6:ff:6e:a0:a1:e5:85:fc:a7:af:4e:c5:
                    f9:ce:b8:bc:0f:c5:80:05:29:86:7a:22:bc:c9:48:
                    5b:49:31:f3:8f:cd:d9:61:81:8e:e1:da:18:1c:d7:
                    ee:7c:ca:b1:a9:66:08:15:b6:a9:10:ef:d4:8a:45:
                    dd:9b:a3:18:dd:c7:54:57:2c:81:15:55:bf:d4:fe:
                    d7:26:b4:d3:8a:9c:28:f3:9b:cd:f2:31:3f:eb:6f:
                    2d:27:0b:58:9b:55:7b:3c:8b:20:7e:30:ec:95:20:
                    8b:32:4a:b1:c9:6e:b0:4b:53:d7:79:70:cd:f6:61:
                    0c:bc:71:61:a4:ae:f6:02:9b:5a:5a:07:aa:71:36:
                    47:0f:1a:b0:73:44:7e:ab:0f:93:44:57:99:58:74:
                    d2:82:ec:fb:ef:e2:ed:b3:f8:cc:ef:0e:49:47:ef:
                    8d:29:f3:10:25:bc:e7:54:38:9f:37:43:41:37:e1:
                    f7:24:34:e2:46:ab:e8:aa:57:be:78:25:83:83:c9:
                    aa:36:0d:98:2d:e4:ac:b1:1d:91:09:01:be:b2:bc:
                    eb:96:bc:2e:6f:cc:03:32:02:81:23:0e:80:11:2d:
                    f3:a9:33:16:7f:60:f4:7b:a6:ee:e0:58:42:79:ff:
                    ea:25:1e:93:4d:03:6f:19:14:58:72:92:37:8b:3d:
                    88:96:d9:a9:03:44:4b:04:ef:3b:19:e0:0f:3a:01:
                    91:e8:ac:04:2e:c5:e9:67:0c:bd:3a:a7:0c:f8:17:
                    fb:a8:19
                Exponent: 65537 (0x10001)
        X509v3 extensions:
            X509v3 Basic Constraints: 
                CA:FALSE
            Netscape Comment: 
                OpenSSL Generated Certificate
            X509v3 Subject Key Identifier: 
                53:F6:D8:E2:5C:61:74:C7:9C:79:3F:F5:2F:21:78:88:76:04:35:AD
            X509v3 Authority Key Identifier: 
                keyid:D6:10:A0:BB:EA:7B:48:74:CE:27:E7:B3:7D:A3:F2:DE:87:CC:DA:54

    Signature Algorithm: sha256WithRSAEncryption
         2e:03:ae:0d:18:5e:96:6f:ee:e0:42:47:0c:5c:5c:ad:71:d7:
         74:f3:bd:26:6c:76:f0:00:47:5c:0a:5d:4d:1d:ab:c2:72:84:
         1f:cd:fc:6b:e3:c1:f6:3d:c3:30:3f:9e:c5:76:90:14:c6:4a:
         d1:8c:e3:85:02:b8:ae:27:03:12:9e:00:13:4c:84:bd:a2:b2:
         b1:ff:e5:fa:f5:9e:64:5b:f3:84:7a:c1:7d:22:56:6c:1a:ea:
         68:87:84:4f:8f:37:8d:cc:4d:b4:19:6b:20:24:52:f8:3d:5c:
         73:df:6b:e8:a2:a8:fe:bc:da:6c:3e:eb:8d:be:74:08:db:48:
         65:c7:48:79:35:b9:d7:ca:a5:1e:de:13:d8:b1:36:a6:3d:a7:
         ee:dc:ed:35:c4:38:27:be:68:f2:96:1f:23:d8:07:6e:5b:9a:
         05:36:72:ea:55:5f:fc:c8:22:32:0f:12:25:ca:cf:2e:44:c7:
         7e:c3:ea:d2:12:08:b0:f7:12:ff:d0:33:3c:57:13:d8:0e:9a:
         3c:2d:c5:21:73:60:7c:5e:f6:b7:c2:95:15:4e:07:9f:63:ef:
         77:de:e1:ed:3d:96:c5:15:06:29:80:d2:d7:8a:0e:e3:27:b4:
         94:c6:f8:0b:09:c5:92:24:50:64:8f:10:6b:da:8e:c3:eb:30:
         aa:e6:c9:b7:63:25:32:16:90:fe:26:52:e8:37:26:85:1f:a3:
         44:f3:7a:c3:6f:96:04:f4:74:95:49:2d:ab:c9:07:d6:60:18:
         8f:f3:87:05:76:28:d1:39:86:82:e6:4d:01:62:95:5f:7d:c8:
         3d:6d:b0:b3:bf:a3:f5:3d:be:4c:65:b8:3c:44:5b:54:b8:5b:
         24:5d:7f:80:b8:48:1d:0e:1e:a8:71:39:85:58:50:2f:74:f2:
         19:70:36:1d:d8:fa:e6:8a:a2:1e:56:2c:b1:8d:66:96:41:7b:
         05:89:6b:af:bf:52:39:b3:74:d2:0e:1e:bb:c0:f3:97:ad:bf:
         e2:a7:8d:d7:8a:89:75:0d:68:45:23:80:3e:2e:b7:98:37:fc:
         26:d6:17:bd:f8:a4:56:25:ee:bf:eb:e8:3c:21:da:60:c4:0d:
         94:e3:c8:7e:c0:9b:1a:0b:ad:ce:36:33:bf:d3:e9:12:cf:11:
         8a:03:c7:c7:f0:d1:63:ca:1c:76:e7:5e:9a:f0:aa:67:0a:07:
         88:14:2d:73:ae:1f:a9:8e:84:9c:6c:92:2f:1d:9a:da:ad:4d:
         94:95:b7:b2:9c:e5:c0:dd:67:e8:d2:aa:64:f0:cd:54:58:f8:
         91:fa:f6:f9:89:8a:25:5a:8c:a2:8d:52:fd:ef:d6:1a:8f:bd:
         d2:e9:fc:87:34:a3:43:5c
-----BEGIN CERTIFICATE-----
MIIFgzCCA2ugAwIBAgIBATANBgkqhkiG9w0BAQsFADBPMQswCQYDVQQGEwJVUzEP
MA0GA1UECAwGRGVuaWFsMRQwEgYDVQQHDAtTcHJpbmdmaWVsZDEMMAoGA1UECgwD
RGlzMQswCQYDVQQDDAJjYTAeFw0xNzEyMjIxOTIzMjVaFw0xNzEyMjMxOTIzMjVa
MD4xCzAJBgNVBAYTAlVTMQ8wDQYDVQQIDAZEZW5pYWwxDDAKBgNVBAoMA0RpczEQ
MA4GA1UEAwwHaW52YWxpZDCCAiIwDQYJKoZIhvcNAQEBBQADggIPADCCAgoCggIB
AKJDtaaf+j2oXd+uPM95EbYzQ6WF13h2fzvrhCSsUHP2CsfI7riK7utrsI3jN5rS
O5yO5YMVtqrKvpBVSKT1QpK9AeRCdtRA71m3LYhCAyTU9zczNwum2QpI6FmR747O
+UKLrAEiE8ozsXVi4l4mofFZJiuywf5D+5FMxf1IAWk7TYhl2HnFntom3BykV55M
WSqIGHPZ9rqs98FGUipIsDLgeOK3n+oq0qcpjcJVzK8qI07XquWELvbv8h79Zgss
B5aPP83hCKpJw9kei2sumu7GMj8hVNc9oj5leBOJb+Y/zQhR9v9uoKHlhfynr07F
+c64vA/FgAUphnoivMlIW0kx84/N2WGBjuHaGBzX7nzKsalmCBW2qRDv1IpF3Zuj
GN3HVFcsgRVVv9T+1ya004qcKPObzfIxP+tvLScLWJtVezyLIH4w7JUgizJKsclu
sEtT13lwzfZhDLxxYaSu9gKbWloHqnE2Rw8asHNEfqsPk0RXmVh00oLs++/i7bP4
zO8OSUfvjSnzECW851Q4nzdDQTfh9yQ04kar6KpXvnglg4PJqjYNmC3krLEdkQkB
vrK865a8Lm/MAzICgSMOgBEt86kzFn9g9Hum7uBYQnn/6iUek00DbxkUWHKSN4s9
iJbZqQNESwTvOxngDzoBkeisBC7F6WcMvTqnDPgX+6gZAgMBAAGjezB5MAkGA1Ud
EwQCMAAwLAYJYIZIAYb4QgENBB8WHU9wZW5TU0wgR2VuZXJhdGVkIENlcnRpZmlj
YXRlMB0GA1UdDgQWBBRT9tjiXGF0x5x5P/UvIXiIdgQ1rTAfBgNVHSMEGDAWgBTW
EKC76ntIdM4n57N9o/Leh8zaVDANBgkqhkiG9w0BAQsFAAOCAgEALgOuDRhelm/u
4EJHDFxcrXHXdPO9Jmx28ABHXApdTR2rwnKEH838a+PB9j3DMD+exXaQFMZK0Yzj
hQK4ricDEp4AE0yEvaKysf/l+vWeZFvzhHrBfSJWbBrqaIeET483jcxNtBlrICRS
+D1cc99r6KKo/rzabD7rjb50CNtIZcdIeTW518qlHt4T2LE2pj2n7tztNcQ4J75o
8pYfI9gHbluaBTZy6lVf/MgiMg8SJcrPLkTHfsPq0hIIsPcS/9AzPFcT2A6aPC3F
IXNgfF72t8KVFU4Hn2Pvd97h7T2WxRUGKYDS14oO4ye0lMb4CwnFkiRQZI8Qa9qO
w+swqubJt2MlMhaQ/iZS6DcmhR+jRPN6w2+WBPR0lUktq8kH1mAYj/OHBXYo0TmG
guZNAWKVX33IPW2ws7+j9T2+TGW4PERbVLhbJF1/gLhIHQ4eqHE5hVhQL3TyGXA2
Hdj65oqiHlYssY1mlkF7BYlrr79SObN00g4eu8Dzl62/4qeN14qJdQ1oRSOAPi63
mDf8JtYXvfikViXuv+voPCHaYMQNlOPIfsCbGgutzjYzv9PpEs8RigPHx/DRY8oc
dudemvCqZwoHiBQtc64fqY6EnGySLx2a2q1NlJW3spzlwN1n6NKqZPDNVFj4kfr2
+YmKJVqMoo1S/e/WGo+90un8hzSjQ1w=
-----END CERTIFICATE-----
