Certificate:
    Data:
        Version: 3 (0x2)
        Serial Number: 2 (0x2)
    Signature Algorithm: sha256WithRSAEncryption
        Issuer: C=US, ST=Denial, L=Springfield, O=Dis, CN=ca
        Validity
            Not Before: Dec 22 19:23:25 2017 GMT
            Not After : Dec 22 19:23:25 2018 GMT
        Subject: C=US, ST=Denial, O=Dis, CN=revoked
        Subject Public Key Info:
            Public Key Algorithm: rsaEncryption
                Public-Key: (4096 bit)
                Modulus:
                    00:d6:fe:4b:ea:38:36:fe:f5:bf:7c:5c:35:64:9e:
                    0f:12:19:a6:5f:c4:00:8b:3a:1e:3b:b7:e3:4f:eb:
                    a9:f6:a4:d5:6d:48:52:bf:2f:9e:fe:40:75:c4:14:
                    cc:51:44:e0:87:83:8f:6f:b4:79:98:64:cf:08:ba:
                    d5:60:2f:d7:a6:25:8b:c4:8f:ea:21:87:46:da:05:
                    ea:87:e9:c9:34:32:64:4e:c7:cd:84:66:2b:39:61:
                    c8:50:cf:bc:bd:f1:f2:cc:09:2d:24:f7:2f:1d:86:
                    6f:0b:70:1d:e2:b2:d9:65:b1:de:47:49:b5:47:0e:
                    81:82:c5:38:36:ca:1d:4d:68:b1:f1:96:d4:c9:04:
                    be:90:bd:c6:9e:e1:ed:85:70:1d:a3:9c:24:79:d9:
                    94:8c:87:8f:ff:9f:61:57:e1:aa:c9:bc:12:65:fe:
                    f3:66:53:39:43:81:c4:44:6a:f7:e1:3c:e5:33:03:
                    23:b3:2c:a7:fa:cd:dd:a6:d4:f7:ee:e7:c2:8d:71:
                    36:bf:a6:fa:dc:35:0a:58:b0:f5:ec:54:a9:b2:b3:
                    b0:40:9d:bc:f3:9a:85:ff:01:3a:6a:c9:a4:50:09:
                    79:d2:6e:c1:ea:db:35:1c:5b:db:bd:d8:ac:07:a1:
                    40:4d:84:c7:fb:6a:23:31:14:42:bb:ed:8c:a1:6e:
                    c3:0b:73:f4:e9:e6:3a:4a:13:79:f8:db:cb:e2:11:
                    6d:78:61:d6:8b:85:4d:3c:69:65:a9:a4:11:ad:c5:
                    bf:3d:1e:0d:51:f3:c8:ee:20:c3:49:ea:c8:30:98:
                    68:35:fd:be:f8:e7:95:8f:26:bf:4c:29:5c:f9:87:
                    e2:fa:49:eb:bf:86:4b:c4:f1:48:63:96:aa:43:13:
                    03:58:a6:b5:9f:0b:3a:c0:49:41:55:53:e5:99:68:
                    b2:26:d5:9f:fd:ab:3b:e2:73:05:04:d8:ba:3f:ab:
                    ca:e2:22:59:89:4e:fb:49:8d:a0:2d:54:0f:d5:c9:
                    ee:ab:01:5b:39:8e:82:f6:6c:13:c0:46:0f:4d:51:
                    b1:c3:e0:c6:a9:c2:b5:45:6e:df:3b:0b:14:ca:e0:
                    46:3f:b8:f1:2b:b0:12:5a:11:03:14:9d:a9:73:e4:
                    af:f1:3a:45:1d:59:55:57:52:e0:03:e7:59:cb:fd:
                    1b:a7:82:aa:44:16:2c:07:75:ea:02:c7:13:3b:ec:
                    82:4f:33:2e:ce:51:e8:1e:ac:17:c1:34:f1:53:39:
                    3a:5f:65:45:fe:4a:7c:ce:af:7d:db:bd:7e:54:00:
                    65:49:15:d0:4b:fd:57:76:a1:28:ef:d2:41:aa:c7:
                    8b:58:69:0b:b3:f0:a1:6c:ce:c2:da:aa:63:2c:72:
                    3f:3a:09
                Exponent: 65537 (0x10001)
        X509v3 extensions:
            X509v3 Basic Constraints: 
                CA:FALSE
            Netscape Comment: 
                OpenSSL Generated Certificate
            X509v3 Subject Key Identifier: 
                53:94:25:50:BB:96:43:3E:5F:5A:C5:88:91:5C:76:F1:9C:91:8C:24
            X509v3 Authority Key Identifier: 
                keyid:D6:10:A0:BB:EA:7B:48:74:CE:27:E7:B3:7D:A3:F2:DE:87:CC:DA:54

    Signature Algorithm: sha256WithRSAEncryption
         9f:bb:3f:2a:df:45:b9:b4:a3:c7:62:83:59:11:61:e6:da:c8:
         5f:85:30:c0:c0:37:6d:15:ad:ac:26:78:6a:5b:a5:46:c9:2a:
         79:b2:42:15:90:00:f2:58:9d:21:51:7e:d9:82:83:60:5e:7f:
         6b:d3:c1:b5:70:27:8d:88:f8:8d:5d:10:fa:4b:6d:b9:69:8c:
         ad:33:e6:77:6d:91:ae:5d:d8:b8:a6:a2:d8:8c:dc:47:24:1b:
         2e:59:2b:49:7d:9a:fc:64:24:9f:e8:8f:a4:c9:40:ab:b6:57:
         07:75:4a:74:8a:14:37:c0:66:99:72:48:7a:29:4f:00:81:fb:
         d0:4b:63:00:60:14:88:06:8d:6c:0e:fb:5d:70:7c:eb:82:7d:
         a3:67:b9:30:76:14:1b:a7:7c:55:6f:d9:a3:8e:62:38:fa:11:
         bf:11:6e:8a:ff:b7:a6:23:98:80:b7:ed:49:d8:24:e2:cd:93:
         1f:36:2f:d7:94:74:47:e7:12:41:0b:3e:97:92:2b:6b:c7:56:
         5a:0c:45:a7:7a:d9:28:50:55:f1:aa:af:9f:52:66:f1:fe:ae:
         f9:b2:5c:50:82:91:ec:23:7b:87:26:7a:ea:f2:35:db:25:12:
         96:e5:e2:58:7c:d9:e2:0b:ec:6c:77:35:a6:b4:94:31:d6:72:
         13:90:3c:3a:86:d4:3f:86:04:60:68:2e:bc:a1:e2:23:11:11:
         a3:45:15:74:07:6c:a2:3f:fd:6c:60:e8:d3:9c:9c:b3:ab:e3:
         0d:ad:82:7f:aa:d6:94:7d:d2:29:e7:f3:3a:01:68:9a:34:bd:
         e6:d6:a0:50:b2:43:93:b6:e8:50:89:ca:1d:a6:1a:f7:4d:eb:
         21:28:66:f7:14:da:08:62:c3:9f:3a:50:e6:a7:18:c5:12:55:
         bb:23:c3:a2:71:cc:9f:73:80:2a:fa:8c:ad:fa:7c:e5:f8:c4:
         43:b3:b5:42:a5:6b:30:51:2e:55:b9:87:7d:df:7a:58:1a:d8:
         fd:30:57:d1:ed:48:fe:00:59:07:3b:53:c0:bb:79:bf:74:36:
         c4:89:b7:10:a1:ea:42:c5:c2:f0:7d:98:81:73:a7:8a:b3:95:
         96:a0:17:9d:1e:15:57:e7:e2:cc:9f:57:5f:21:2a:31:f5:c8:
         01:53:23:0a:47:b6:8e:9f:02:c0:9c:6a:a8:bf:0e:27:5c:37:
         c1:ae:38:d5:68:0d:8d:2c:3f:d3:e3:88:41:73:51:87:77:d3:
         e1:44:70:94:3f:0c:32:fe:3c:ed:8c:eb:b3:32:aa:ee:46:a2:
         25:bf:00:3e:b6:7f:2d:36:1d:94:c3:1e:4b:8a:15:70:30:17:
         39:3c:e7:8d:a1:10:c9:74
-----BEGIN CERTIFICATE-----
MIIFgzCCA2ugAwIBAgIBAjANBgkqhkiG9w0BAQsFADBPMQswCQYDVQQGEwJVUzEP
MA0GA1UECAwGRGVuaWFsMRQwEgYDVQQHDAtTcHJpbmdmaWVsZDEMMAoGA1UECgwD
RGlzMQswCQYDVQQDDAJjYTAeFw0xNzEyMjIxOTIzMjVaFw0xODEyMjIxOTIzMjVa
MD4xCzAJBgNVBAYTAlVTMQ8wDQYDVQQIDAZEZW5pYWwxDDAKBgNVBAoMA0RpczEQ
MA4GA1UEAwwHcmV2b2tlZDCCAiIwDQYJKoZIhvcNAQEBBQADggIPADCCAgoCggIB
ANb+S+o4Nv71v3xcNWSeDxIZpl/EAIs6Hju340/rqfak1W1IUr8vnv5AdcQUzFFE
4IeDj2+0eZhkzwi61WAv16Yli8SP6iGHRtoF6ofpyTQyZE7HzYRmKzlhyFDPvL3x
8swJLST3Lx2GbwtwHeKy2WWx3kdJtUcOgYLFODbKHU1osfGW1MkEvpC9xp7h7YVw
HaOcJHnZlIyHj/+fYVfhqsm8EmX+82ZTOUOBxERq9+E85TMDI7Msp/rN3abU9+7n
wo1xNr+m+tw1Cliw9exUqbKzsECdvPOahf8BOmrJpFAJedJuwerbNRxb273YrAeh
QE2Ex/tqIzEUQrvtjKFuwwtz9OnmOkoTefjby+IRbXhh1ouFTTxpZamkEa3Fvz0e
DVHzyO4gw0nqyDCYaDX9vvjnlY8mv0wpXPmH4vpJ67+GS8TxSGOWqkMTA1imtZ8L
OsBJQVVT5ZlosibVn/2rO+JzBQTYuj+ryuIiWYlO+0mNoC1UD9XJ7qsBWzmOgvZs
E8BGD01RscPgxqnCtUVu3zsLFMrgRj+48SuwEloRAxSdqXPkr/E6RR1ZVVdS4APn
Wcv9G6eCqkQWLAd16gLHEzvsgk8zLs5R6B6sF8E08VM5Ol9lRf5KfM6vfdu9flQA
ZUkV0Ev9V3ahKO/SQarHi1hpC7PwoWzOwtqqYyxyPzoJAgMBAAGjezB5MAkGA1Ud
EwQCMAAwLAYJYIZIAYb4QgENBB8WHU9wZW5TU0wgR2VuZXJhdGVkIENlcnRpZmlj
YXRlMB0GA1UdDgQWBBRTlCVQu5ZDPl9axYiRXHbxnJGMJDAfBgNVHSMEGDAWgBTW
EKC76ntIdM4n57N9o/Leh8zaVDANBgkqhkiG9w0BAQsFAAOCAgEAn7s/Kt9FubSj
x2KDWRFh5trIX4UwwMA3bRWtrCZ4alulRskqebJCFZAA8lidIVF+2YKDYF5/a9PB
tXAnjYj4jV0Q+kttuWmMrTPmd22Rrl3YuKai2IzcRyQbLlkrSX2a/GQkn+iPpMlA
q7ZXB3VKdIoUN8BmmXJIeilPAIH70EtjAGAUiAaNbA77XXB864J9o2e5MHYUG6d8
VW/Zo45iOPoRvxFuiv+3piOYgLftSdgk4s2THzYv15R0R+cSQQs+l5Ira8dWWgxF
p3rZKFBV8aqvn1Jm8f6u+bJcUIKR7CN7hyZ66vI12yUSluXiWHzZ4gvsbHc1prSU
MdZyE5A8OobUP4YEYGguvKHiIxERo0UVdAdsoj/9bGDo05ycs6vjDa2Cf6rWlH3S
KefzOgFomjS95tagULJDk7boUInKHaYa903rIShm9xTaCGLDnzpQ5qcYxRJVuyPD
onHMn3OAKvqMrfp85fjEQ7O1QqVrMFEuVbmHfd96WBrY/TBX0e1I/gBZBztTwLt5
v3Q2xIm3EKHqQsXC8H2YgXOnirOVlqAXnR4VV+fizJ9XXyEqMfXIAVMjCke2jp8C
wJxqqL8OJ1w3wa441WgNjSw/0+OIQXNRh3fT4URwlD8MMv487YzrszKq7kaiJb8A
PrZ/LTYdlMMeS4oVcDAXOTznjaEQyXQ=
-----END CERTIFICATE-----
