Certificate:
    Data:
        Version: 3 (0x2)
        Serial Number: 0 (0x0)
    Signature Algorithm: sha256WithRSAEncryption
        Issuer: C=US, ST=Denial, L=Springfield, O=Dis, CN=ca
        Validity
            Not Before: Dec 22 19:23:24 2017 GMT
            Not After : Dec 22 19:23:24 2018 GMT
        Subject: C=US, ST=Denial, O=Dis, CN=signed
        Subject Public Key Info:
            Public Key Algorithm: rsaEncryption
                Public-Key: (4096 bit)
                Modulus:
                    00:ae:33:58:e6:e9:b4:1e:1a:0a:0e:6b:55:1b:c7:
                    87:28:c0:e2:4b:7b:0f:15:42:cb:70:78:58:06:20:
                    52:34:62:0e:16:ad:c9:d3:67:5e:12:f4:59:92:f2:
                    69:ee:14:b4:41:0f:4d:0e:8f:df:bf:38:73:bb:35:
                    ff:6d:e5:17:b5:c7:03:bf:97:8f:03:b0:a3:06:ed:
                    05:f0:3c:65:9b:f9:8b:d2:de:90:21:e0:fb:9f:0a:
                    78:31:43:e0:6b:41:a8:45:16:51:3e:d0:d9:08:f1:
                    81:a9:12:4b:ea:8b:88:2e:c6:d0:21:4b:2e:f3:37:
                    31:31:50:8f:21:8a:4a:f5:5d:29:31:64:59:0e:4b:
                    71:ed:a6:17:a9:4f:53:33:72:93:de:af:ed:21:ad:
                    76:3f:17:b5:03:f2:54:e5:cc:98:1d:8a:d7:54:91:
                    df:09:6c:2e:9a:1e:07:fb:35:40:37:38:93:dc:0c:
                    5b:b4:81:44:d5:fc:ec:43:6b:22:da:4d:37:8d:4f:
                    05:ab:95:f8:9c:cb:ea:9a:ec:fb:09:98:f1:f9:84:
                    33:74:88:1d:a7:5e:57:b4:27:64:60:34:cf:65:14:
                    e9:ef:b1:3f:37:09:a4:dc:88:d1:34:2f:54:d9:14:
                    b7:39:47:1a:d8:16:88:e6:e2:d0:21:52:3c:4a:34:
                    bf:06:df:a5:74:dd:e0:82:54:76:d2:30:cf:e8:41:
                    c6:df:2c:77:68:ac:53:45:b2:bd:d3:40:50:70:f0:
                    55:3b:a1:8f:d1:d8:27:7c:aa:0e:03:9d:2e:46:f3:
                    15:1b:ff:81:af:63:af:6d:3a:e7:10:54:c5:81:57:
                    11:a0:39:b1:5b:e2:f7:09:a0:07:c8:f7:31:3c:37:
                    64:b2:b3:bd:41:e3:b3:ec:7a:3f:0b:12:2c:6a:c5:
                    fb:29:58:1b:fb:39:0a:9f:4c:19:94:86:95:d3:ff:
                    b2:6d:57:e7:cc:5f:e6:5d:21:1d:08:6a:4a:fa:b3:
                    3f:fd:82:5e:3e:ae:b2:40:fd:ab:20:df:3a:38:14:
                    9d:0d:db:f0:94:73:23:c3:22:4d:ec:3b:5c:d0:21:
                    a5:8b:7b:86:55:27:f5:d1:bc:c5:5e:10:2f:cd:fb:
                    9d:b2:be:a1:21:a4:2b:ae:05:91:d7:a7:cb:9c:dd:
                    ff:37:87:2b:48:ef:60:29:7f:05:e2:2c:69:f5:d7:
                    a8:65:04:9e:b7:5a:be:b9:68:f1:a6:35:d1:d4:40:
                    6c:3d:7c:51:72:ef:bf:6a:ed:e7:20:6a:de:2c:bc:
                    e0:8d:e0:91:e3:80:f1:88:a6:54:c0:05:32:f1:fe:
                    0b:ce:88:21:b8:55:82:7a:f3:c0:fe:df:34:76:6b:
                    dd:0f:a5
                Exponent: 65537 (0x10001)
        X509v3 extensions:
            X509v3 Basic Constraints: 
                CA:FALSE
            Netscape Comment: 
                OpenSSL Generated Certificate
            X509v3 Subject Key Identifier: 
                4E:97:BB:91:59:6D:A8:F0:42:42:69:51:A0:EC:C2:22:51:F4:73:AD
            X509v3 Authority Key Identifier: 
                keyid:D6:10:A0:BB:EA:7B:48:74:CE:27:E7:B3:7D:A3:F2:DE:87:CC:DA:54

    Signature Algorithm: sha256WithRSAEncryption
         62:8d:83:5d:4d:61:f4:4e:55:c3:c9:fa:3f:c7:cf:ed:14:1b:
         f8:21:b6:46:c5:f4:16:a5:88:a0:66:1f:48:5e:fe:e8:dd:81:
         de:9a:81:c8:0c:30:29:9b:62:cd:dd:b8:64:ea:f5:af:d7:2a:
         b6:21:1a:75:55:4a:4e:0a:01:6a:01:7d:e4:ab:23:cc:c1:b1:
         10:30:bf:13:c7:27:be:3f:31:2c:91:08:b6:4e:b8:d5:f3:f9:
         88:08:82:bd:06:a6:de:f6:3c:08:f8:92:b9:30:28:f2:ff:54:
         17:3d:b2:96:15:22:8a:1b:7e:98:94:c4:fc:75:22:da:66:65:
         74:6f:b1:b8:83:63:92:9b:fa:a9:b9:78:a4:7b:c3:57:7f:9c:
         f9:f5:fa:88:7a:5f:e5:a5:ff:34:31:67:d7:77:cf:33:2b:d8:
         06:3c:29:b2:f9:c8:b3:24:d1:0a:d6:26:69:d8:ed:dd:f3:5f:
         cb:03:5e:ba:96:97:00:31:f4:92:74:c4:6a:b6:d7:a2:89:bc:
         9d:28:81:43:f4:a1:52:55:16:5b:a4:41:ba:e3:10:f5:13:1e:
         e8:e5:b8:25:73:e3:35:f7:97:b9:cd:42:be:b3:2a:39:ff:c5:
         78:a4:11:08:33:11:28:4d:24:f3:11:c1:a4:87:a7:53:99:07:
         bb:b7:dd:ec:33:08:cd:4e:33:77:a2:5c:31:ae:27:6f:22:cc:
         62:00:61:5b:fb:01:37:cb:12:8f:95:03:49:37:43:d0:ea:68:
         58:d9:41:78:68:d2:b2:12:f2:f6:87:ea:b9:ec:15:1d:1c:87:
         b5:0c:ca:d0:95:82:f6:5d:ab:12:8e:f0:c8:5c:24:ea:e1:79:
         d8:49:14:fd:12:7a:85:81:6e:a9:89:c8:f2:7c:af:b1:10:43:
         f0:6c:c4:b6:1e:1e:a1:bb:9d:60:4a:e0:53:cd:b2:08:10:d6:
         fc:55:fe:98:62:a4:74:0b:a4:3f:ce:42:78:cb:75:a7:a2:21:
         30:bf:b4:e8:98:c2:f0:eb:e5:f8:82:a8:ff:64:d2:2a:5d:c9:
         4f:a3:91:fc:67:7d:03:c9:02:44:36:4c:e6:ec:47:c6:fa:94:
         d5:d3:59:30:3f:3d:e2:31:a0:31:54:31:21:b9:35:9c:a2:32:
         2d:91:09:c8:f6:8b:de:11:6d:cb:f2:a1:01:af:6b:4c:2f:1a:
         ac:c9:c0:40:38:9c:f6:0b:42:a5:f2:4e:a5:4f:c8:68:c3:ca:
         35:42:33:6d:e7:0a:82:44:69:3f:76:a2:87:e8:0b:a8:24:1b:
         9c:96:8d:ed:f3:73:9e:72:8e:16:5b:73:40:58:89:fa:90:c1:
         06:36:12:6b:33:c0:6f:17
-----BEGIN CERTIFICATE-----
MIIFgjCCA2qgAwIBAgIBADANBgkqhkiG9w0BAQsFADBPMQswCQYDVQQGEwJVUzEP
MA0GA1UECAwGRGVuaWFsMRQwEgYDVQQHDAtTcHJpbmdmaWVsZDEMMAoGA1UECgwD
RGlzMQswCQYDVQQDDAJjYTAeFw0xNzEyMjIxOTIzMjRaFw0xODEyMjIxOTIzMjRa
MD0xCzAJBgNVBAYTAlVTMQ8wDQYDVQQIDAZEZW5pYWwxDDAKBgNVBAoMA0RpczEP
MA0GA1UEAwwGc2lnbmVkMIICIjANBgkqhkiG9w0BAQEFAAOCAg8AMIICCgKCAgEA
rjNY5um0HhoKDmtVG8eHKMDiS3sPFULLcHhYBiBSNGIOFq3J02deEvRZkvJp7hS0
QQ9NDo/fvzhzuzX/beUXtccDv5ePA7CjBu0F8Dxlm/mL0t6QIeD7nwp4MUPga0Go
RRZRPtDZCPGBqRJL6ouILsbQIUsu8zcxMVCPIYpK9V0pMWRZDktx7aYXqU9TM3KT
3q/tIa12Pxe1A/JU5cyYHYrXVJHfCWwumh4H+zVANziT3AxbtIFE1fzsQ2si2k03
jU8Fq5X4nMvqmuz7CZjx+YQzdIgdp15XtCdkYDTPZRTp77E/Nwmk3IjRNC9U2RS3
OUca2BaI5uLQIVI8SjS/Bt+ldN3gglR20jDP6EHG3yx3aKxTRbK900BQcPBVO6GP
0dgnfKoOA50uRvMVG/+Br2OvbTrnEFTFgVcRoDmxW+L3CaAHyPcxPDdksrO9QeOz
7Ho/CxIsasX7KVgb+zkKn0wZlIaV0/+ybVfnzF/mXSEdCGpK+rM//YJePq6yQP2r
IN86OBSdDdvwlHMjwyJN7Dtc0CGli3uGVSf10bzFXhAvzfudsr6hIaQrrgWR16fL
nN3/N4crSO9gKX8F4ixp9deoZQSet1q+uWjxpjXR1EBsPXxRcu+/au3nIGreLLzg
jeCR44DxiKZUwAUy8f4LzoghuFWCevPA/t80dmvdD6UCAwEAAaN7MHkwCQYDVR0T
BAIwADAsBglghkgBhvhCAQ0EHxYdT3BlblNTTCBHZW5lcmF0ZWQgQ2VydGlmaWNh
dGUwHQYDVR0OBBYEFE6Xu5FZbajwQkJpUaDswiJR9HOtMB8GA1UdIwQYMBaAFNYQ
oLvqe0h0zifns32j8t6HzNpUMA0GCSqGSIb3DQEBCwUAA4ICAQBijYNdTWH0TlXD
yfo/x8/tFBv4IbZGxfQWpYigZh9IXv7o3YHemoHIDDApm2LN3bhk6vWv1yq2IRp1
VUpOCgFqAX3kqyPMwbEQML8Txye+PzEskQi2TrjV8/mICIK9Bqbe9jwI+JK5MCjy
/1QXPbKWFSKKG36YlMT8dSLaZmV0b7G4g2OSm/qpuXike8NXf5z59fqIel/lpf80
MWfXd88zK9gGPCmy+cizJNEK1iZp2O3d81/LA166lpcAMfSSdMRqtteiibydKIFD
9KFSVRZbpEG64xD1Ex7o5bglc+M195e5zUK+syo5/8V4pBEIMxEoTSTzEcGkh6dT
mQe7t93sMwjNTjN3olwxridvIsxiAGFb+wE3yxKPlQNJN0PQ6mhY2UF4aNKyEvL2
h+q57BUdHIe1DMrQlYL2XasSjvDIXCTq4XnYSRT9EnqFgW6picjyfK+xEEPwbMS2
Hh6hu51gSuBTzbIIENb8Vf6YYqR0C6Q/zkJ4y3WnoiEwv7TomMLw6+X4gqj/ZNIq
XclPo5H8Z30DyQJENkzm7EfG+pTV01kwPz3iMaAxVDEhuTWcojItkQnI9oveEW3L
8qEBr2tMLxqsycBAOJz2C0Kl8k6lT8how8o1QjNt5wqCRGk/dqKH6AuoJBuclo3t
83Oeco4WW3NAWIn6kMEGNhJrM8BvFw==
-----END CERTIFICATE-----
